; Function Attrs: nounwind uwtable
define internal range(i32 -1, 1) i32 @list___init__(ptr noundef %0, ptr noundef readonly captures(none) %1, ptr noundef %2) #0 {
  %4 = getelementptr i8, ptr %0, i64 8
  %.val17 = load ptr, ptr %4, align 8, !tbaa !105
  %.not = icmp eq ptr %.val17, @PyList_Type
  br i1 %.not, label %11, label %5

5:                                                ; preds = %3
  %6 = getelementptr inbounds nuw i8, ptr %.val17, i64 312
  %7 = load ptr, ptr %6, align 8, !tbaa !172
  %8 = load ptr, ptr getelementptr inbounds nuw (i8, ptr @PyList_Type, i64 312), align 8, !tbaa !172
  %9 = icmp ne ptr %7, %8
  %10 = icmp eq ptr %2, null
  %or.cond = or i1 %10, %9
  br i1 %or.cond, label %14, label %12

11:                                               ; preds = %3
  %.old1 = icmp eq ptr %2, null
  br i1 %.old1, label %14, label %12

12:                                               ; preds = %5, %11
  %13 = tail call i32 @_PyArg_NoKeywords(ptr noundef nonnull @.str.4, ptr noundef nonnull %2) #12
  %.not15 = icmp eq i32 %13, 0
  br i1 %.not15, label %list___init___impl.exit, label %14

14:                                               ; preds = %12, %11, %5
  %15 = getelementptr i8, ptr %1, i64 16
  %.val18 = load i64, ptr %15, align 8, !tbaa !33
  %or.cond22 = icmp ult i64 %.val18, 2
  br i1 %or.cond22, label %18, label %16

16:                                               ; preds = %14
  %17 = tail call i32 @_PyArg_CheckPositional(ptr noundef nonnull @.str.4, i64 noundef %.val18, i64 noundef 0, i64 noundef 1) #12
  %.not16 = icmp eq i32 %17, 0
  br i1 %.not16, label %list___init___impl.exit, label %thread-pre-split

thread-pre-split:                                 ; preds = %16
  %.val21.pr = load i64, ptr %15, align 8, !tbaa !33
  br label %18

18:                                               ; preds = %14, %thread-pre-split
  %.val21 = phi i64 [ %.val21.pr, %thread-pre-split ], [ %.val18, %14 ]
  %19 = icmp slt i64 %.val21, 1
  br i1 %19, label %23, label %20

20:                                               ; preds = %18
  %21 = getelementptr inbounds nuw i8, ptr %1, i64 24
  %22 = load ptr, ptr %21, align 8, !tbaa !112
  br label %23

23:                                               ; preds = %18, %20
  %.0 = phi ptr [ null, %18 ], [ %22, %20 ]
  %24 = getelementptr inbounds nuw i8, ptr %0, i64 24
  %25 = load ptr, ptr %24, align 8, !tbaa !27
  %.not.i = icmp eq ptr %25, null
  br i1 %.not.i, label %41, label %26

26:                                               ; preds = %23
  %27 = getelementptr i8, ptr %0, i64 16
  %.val.i.i.i = load i64, ptr %27, align 8, !tbaa !33
  %28 = add i64 %.val.i.i.i, -1
  %29 = icmp sgt i64 %28, -1
  tail call void @llvm.memset.p0.i64(ptr noundef nonnull align 8 dereferenceable(24) %27, i8 0, i64 24, i1 false)
  br i1 %29, label %.lr.ph.i.i.i, label %list_clear.exit.i

.lr.ph.i.i.i:                                     ; preds = %26, %Py_XDECREF.exit.i.i.i
  %30 = phi i64 [ %39, %Py_XDECREF.exit.i.i.i ], [ %28, %26 ]
  %31 = getelementptr ptr, ptr %25, i64 %30
  %32 = load ptr, ptr %31, align 8, !tbaa !112
  %.not.i.i.i.i = icmp eq ptr %32, null
  br i1 %.not.i.i.i.i, label %Py_XDECREF.exit.i.i.i, label %33

33:                                               ; preds = %.lr.ph.i.i.i
  %34 = load i32, ptr %32, align 8, !tbaa !32
  %.not.i.i.i.i.i = icmp sgt i32 %34, -1
  br i1 %.not.i.i.i.i.i, label %35, label %Py_XDECREF.exit.i.i.i

35:                                               ; preds = %33
  %36 = add nsw i32 %34, -1
  store i32 %36, ptr %32, align 8, !tbaa !32
  %37 = icmp eq i32 %36, 0
  br i1 %37, label %38, label %Py_XDECREF.exit.i.i.i

38:                                               ; preds = %35
  tail call void @_Py_Dealloc(ptr noundef nonnull %32) #12
  br label %Py_XDECREF.exit.i.i.i

Py_XDECREF.exit.i.i.i:                            ; preds = %38, %35, %33, %.lr.ph.i.i.i
  %39 = add nsw i64 %30, -1
  %40 = icmp sgt i64 %30, 0
  br i1 %40, label %.lr.ph.i.i.i, label %list_clear.exit.i, !llvm.loop !122

list_clear.exit.i:                                ; preds = %Py_XDECREF.exit.i.i.i, %26
  tail call void @PyMem_Free(ptr noundef nonnull %25) #12
  br label %41

41:                                               ; preds = %list_clear.exit.i, %23
  %.not6.i = icmp eq ptr %.0, null
  br i1 %.not6.i, label %45, label %42

42:                                               ; preds = %41
  %43 = tail call fastcc i32 @_list_extend(ptr noundef %0, ptr noundef nonnull %.0)
  %44 = icmp slt i32 %43, 0
  br i1 %44, label %list___init___impl.exit, label %45

45:                                               ; preds = %42, %41
  br label %list___init___impl.exit

list___init___impl.exit:                          ; preds = %45, %42, %16, %12
  %.014 = phi i32 [ -1, %16 ], [ -1, %12 ], [ 0, %45 ], [ -1, %42 ]
  ret i32 %.014
}